target datalayout = "e-m:e-p270:32:32-p271:32:32-p272:64:64-i64:64-i128:128-f80:128-n8:16:32:64-S128"
target triple = "x86_64-pc-linux-gnu"

%struct.stbi__write_context = type { ptr, ptr }

@__const._ZL19stbi_write_hdr_coreP19stbi__write_contextiiiPf.header = private unnamed_addr constant [66 x i8] c"#?RADIANCE\0A# Written by stb_image_write.h\0AFORMAT=32-bit_rle_rgbe\0A\00", align 16
@.str.14 = private unnamed_addr constant [49 x i8] c"EXPOSURE=          1.0000000000000\0A\0A-Y %d +X %d\0A\00", align 1

; Function Attrs: mustprogress uwtable
define internal noundef i32 @_ZL19stbi_write_hdr_coreP19stbi__write_contextiiiPf(ptr noundef %0, i32 noundef %1, i32 noundef %2, i32 noundef %3, ptr noundef %4) #4 {
  %6 = alloca i32, align 4
  %7 = alloca ptr, align 8
  %8 = alloca i32, align 4
  %9 = alloca i32, align 4
  %10 = alloca i32, align 4
  %11 = alloca ptr, align 8
  %12 = alloca ptr, align 8
  %13 = alloca i32, align 4
  %14 = alloca i32, align 4
  %15 = alloca [128 x i8], align 16
  %16 = alloca [66 x i8], align 16
  store ptr %0, ptr %7, align 8
  store i32 %1, ptr %8, align 4
  store i32 %2, ptr %9, align 4
  store i32 %3, ptr %10, align 4
  store ptr %4, ptr %11, align 8
  %17 = load i32, ptr %9, align 4
  %18 = icmp sle i32 %17, 0
  br i1 %18, label %25, label %19

19:                                               ; preds = %5
  %20 = load i32, ptr %8, align 4
  %21 = icmp sle i32 %20, 0
  br i1 %21, label %25, label %22

22:                                               ; preds = %19
  %23 = load ptr, ptr %11, align 8
  %24 = icmp eq ptr %23, null
  br i1 %24, label %25, label %26

25:                                               ; preds = %22, %19, %5
  store i32 0, ptr %6, align 4
  br label %72

26:                                               ; preds = %22
  %27 = load i32, ptr %8, align 4
  %28 = mul nsw i32 %27, 4
  %29 = sext i32 %28 to i64
  %30 = call noalias ptr @malloc(i64 noundef %29) #21
  store ptr %30, ptr %12, align 8
  call void @llvm.memcpy.p0.p0.i64(ptr align 16 %16, ptr align 16 @__const._ZL19stbi_write_hdr_coreP19stbi__write_contextiiiPf.header, i64 66, i1 false)
  %31 = load ptr, ptr %7, align 8
  %32 = getelementptr inbounds %struct.stbi__write_context, ptr %31, i32 0, i32 0
  %33 = load ptr, ptr %32, align 8
  %34 = load ptr, ptr %7, align 8
  %35 = getelementptr inbounds %struct.stbi__write_context, ptr %34, i32 0, i32 1
  %36 = load ptr, ptr %35, align 8
  %37 = getelementptr inbounds [66 x i8], ptr %16, i64 0, i64 0
  call void %33(ptr noundef %36, ptr noundef %37, i32 noundef 65)
  %38 = getelementptr inbounds [128 x i8], ptr %15, i64 0, i64 0
  %39 = load i32, ptr %9, align 4
  %40 = load i32, ptr %8, align 4
  %41 = call i32 (ptr, ptr, ...) @sprintf(ptr noundef %38, ptr noundef @.str.14, i32 noundef %39, i32 noundef %40) #18
  store i32 %41, ptr %14, align 4
  %42 = load ptr, ptr %7, align 8
  %43 = getelementptr inbounds %struct.stbi__write_context, ptr %42, i32 0, i32 0
  %44 = load ptr, ptr %43, align 8
  %45 = load ptr, ptr %7, align 8
  %46 = getelementptr inbounds %struct.stbi__write_context, ptr %45, i32 0, i32 1
  %47 = load ptr, ptr %46, align 8
  %48 = getelementptr inbounds [128 x i8], ptr %15, i64 0, i64 0
  %49 = load i32, ptr %14, align 4
  call void %44(ptr noundef %47, ptr noundef %48, i32 noundef %49)
  store i32 0, ptr %13, align 4
  br label %50

50:                                               ; preds = %67, %26
  %51 = load i32, ptr %13, align 4
  %52 = load i32, ptr %9, align 4
  %53 = icmp slt i32 %51, %52
  br i1 %53, label %54, label %70

54:                                               ; preds = %50
  %55 = load ptr, ptr %7, align 8
  %56 = load i32, ptr %8, align 4
  %57 = load i32, ptr %10, align 4
  %58 = load ptr, ptr %12, align 8
  %59 = load ptr, ptr %11, align 8
  %60 = load i32, ptr %10, align 4
  %61 = load i32, ptr %13, align 4
  %62 = mul nsw i32 %60, %61
  %63 = load i32, ptr %8, align 4
  %64 = mul nsw i32 %62, %63
  %65 = sext i32 %64 to i64
  %66 = getelementptr inbounds float, ptr %59, i64 %65
  call void @_Z25stbiw__write_hdr_scanlineP19stbi__write_contextiiPhPf(ptr noundef %55, i32 noundef %56, i32 noundef %57, ptr noundef %58, ptr noundef %66)
  br label %67

67:                                               ; preds = %54
  %68 = load i32, ptr %13, align 4
  %69 = add nsw i32 %68, 1
  store i32 %69, ptr %13, align 4
  br label %50, !llvm.loop !19

70:                                               ; preds = %50
  %71 = load ptr, ptr %12, align 8
  call void @free(ptr noundef %71) #18
  store i32 1, ptr %6, align 4
  br label %72

72:                                               ; preds = %70, %25
  %73 = load i32, ptr %6, align 4
  ret i32 %73
}