; Function Attrs: mustprogress uwtable
define internal fastcc noundef i32 @_ZL19stbi_write_hdr_coreP19stbi__write_contextiiiPf(ptr nocapture noundef readonly %0, i32 noundef %1, i32 noundef %2, i32 noundef %3, ptr noundef readonly %4) unnamed_addr #3 {
  %6 = alloca [128 x i8], align 16
  %7 = alloca [66 x i8], align 16
  %8 = icmp slt i32 %2, 1
  %9 = icmp slt i32 %1, 1
  %or.cond = or i1 %9, %8
  %10 = icmp eq ptr %4, null
  %or.cond3 = or i1 %or.cond, %10
  br i1 %or.cond3, label %28, label %11

11:                                               ; preds = %5
  %12 = shl nsw i32 %1, 2
  %13 = zext nneg i32 %12 to i64
  %14 = tail call noalias ptr @malloc(i64 noundef %13) #26
  call void @llvm.memcpy.p0.p0.i64(ptr noundef nonnull align 16 dereferenceable(66) %7, ptr noundef nonnull align 16 dereferenceable(66) @__const._ZL19stbi_write_hdr_coreP19stbi__write_contextiiiPf.header, i64 66, i1 false)
  %15 = load ptr, ptr %0, align 8
  %16 = getelementptr inbounds i8, ptr %0, i64 8
  %17 = load ptr, ptr %16, align 8
  call void %15(ptr noundef %17, ptr noundef nonnull %7, i32 noundef 65)
  %18 = call i32 (ptr, ptr, ...) @sprintf(ptr noundef nonnull dereferenceable(1) %6, ptr noundef nonnull dereferenceable(1) @.str.14, i32 noundef %2, i32 noundef %1) #24
  %19 = load ptr, ptr %0, align 8
  %20 = load ptr, ptr %16, align 8
  call void %19(ptr noundef %20, ptr noundef nonnull %6, i32 noundef %18)
  %21 = mul i32 %3, %1
  %wide.trip.count = zext nneg i32 %2 to i64
  br label %22

22:                                               ; preds = %11, %22
  %indvars.iv = phi i64 [ 0, %11 ], [ %indvars.iv.next, %22 ]
  %23 = trunc i64 %indvars.iv to i32
  %24 = mul i32 %21, %23
  %25 = sext i32 %24 to i64
  %26 = getelementptr inbounds float, ptr %4, i64 %25
  call void @_Z25stbiw__write_hdr_scanlineP19stbi__write_contextiiPhPf(ptr noundef nonnull %0, i32 noundef %1, i32 noundef %3, ptr noundef %14, ptr noundef %26)
  %indvars.iv.next = add nuw nsw i64 %indvars.iv, 1
  %exitcond.not = icmp eq i64 %indvars.iv.next, %wide.trip.count
  br i1 %exitcond.not, label %27, label %22, !llvm.loop !20

27:                                               ; preds = %22
  call void @free(ptr noundef %14) #24
  br label %28

28:                                               ; preds = %5, %27
  %.0 = phi i32 [ 1, %27 ], [ 0, %5 ]
  ret i32 %.0
}